target datalayout = "e-m:e-p270:32:32-p271:32:32-p272:64:64-i64:64-i128:128-f80:128-n8:16:32:64-S128"
target triple = "x86_64-pc-linux-gnu"

%struct.SDL_DriverXbox360_Context = type { ptr, ptr, i32, i8, [64 x i8] }
%struct.SDL_HIDAPI_Device = type { ptr, ptr, ptr, ptr, i16, i16, i16, ptr, %struct.SDL_GUID, i32, i32, i32, i32, i16, i16, i8, i32, i32, i32, ptr, ptr, ptr, ptr, %struct.SDL_AtomicInt, i32, ptr, i8, i8, i8, ptr, i32, ptr, ptr }
%struct.SDL_GUID = type { [16 x i8] }
%struct.SDL_AtomicInt = type { i32 }

; Function Attrs: nounwind uwtable
define internal void @HIDAPI_DriverXbox360_HandleStatePacket(ptr noundef %0, ptr noundef %1, ptr noundef %2, i32 noundef %3) #0 {
  %5 = alloca ptr, align 8
  %6 = alloca ptr, align 8
  %7 = alloca ptr, align 8
  %8 = alloca i32, align 4
  %9 = alloca i16, align 2
  %10 = alloca i8, align 1
  %11 = alloca i64, align 8
  %12 = alloca i8, align 1
  store ptr %0, ptr %5, align 8
  store ptr %1, ptr %6, align 8
  store ptr %2, ptr %7, align 8
  store i32 %3, ptr %8, align 4
  call void @llvm.lifetime.start.p0(i64 2, ptr %9) #6
  call void @llvm.lifetime.start.p0(i64 1, ptr %10) #6
  store i8 1, ptr %10, align 1
  call void @llvm.lifetime.start.p0(i64 8, ptr %11) #6
  %13 = call i64 @SDL_GetTicksNS_REAL()
  store i64 %13, ptr %11, align 8
  %14 = load ptr, ptr %6, align 8
  %15 = getelementptr inbounds nuw %struct.SDL_DriverXbox360_Context, ptr %14, i32 0, i32 4
  %16 = getelementptr inbounds [64 x i8], ptr %15, i64 0, i64 2
  %17 = load i8, ptr %16, align 1
  %18 = zext i8 %17 to i32
  %19 = load ptr, ptr %7, align 8
  %20 = getelementptr inbounds i8, ptr %19, i64 2
  %21 = load i8, ptr %20, align 1
  %22 = zext i8 %21 to i32
  %23 = icmp ne i32 %18, %22
  br i1 %23, label %24, label %108

24:                                               ; preds = %4
  call void @llvm.lifetime.start.p0(i64 1, ptr %12) #6
  store i8 0, ptr %12, align 1
  %25 = load ptr, ptr %7, align 8
  %26 = getelementptr inbounds i8, ptr %25, i64 2
  %27 = load i8, ptr %26, align 1
  %28 = zext i8 %27 to i32
  %29 = and i32 %28, 1
  %30 = icmp ne i32 %29, 0
  br i1 %30, label %31, label %36

31:                                               ; preds = %24
  %32 = load i8, ptr %12, align 1
  %33 = zext i8 %32 to i32
  %34 = or i32 %33, 1
  %35 = trunc i32 %34 to i8
  store i8 %35, ptr %12, align 1
  br label %36

36:                                               ; preds = %31, %24
  %37 = load ptr, ptr %7, align 8
  %38 = getelementptr inbounds i8, ptr %37, i64 2
  %39 = load i8, ptr %38, align 1
  %40 = zext i8 %39 to i32
  %41 = and i32 %40, 2
  %42 = icmp ne i32 %41, 0
  br i1 %42, label %43, label %48

43:                                               ; preds = %36
  %44 = load i8, ptr %12, align 1
  %45 = zext i8 %44 to i32
  %46 = or i32 %45, 4
  %47 = trunc i32 %46 to i8
  store i8 %47, ptr %12, align 1
  br label %48

48:                                               ; preds = %43, %36
  %49 = load ptr, ptr %7, align 8
  %50 = getelementptr inbounds i8, ptr %49, i64 2
  %51 = load i8, ptr %50, align 1
  %52 = zext i8 %51 to i32
  %53 = and i32 %52, 4
  %54 = icmp ne i32 %53, 0
  br i1 %54, label %55, label %60

55:                                               ; preds = %48
  %56 = load i8, ptr %12, align 1
  %57 = zext i8 %56 to i32
  %58 = or i32 %57, 8
  %59 = trunc i32 %58 to i8
  store i8 %59, ptr %12, align 1
  br label %60

60:                                               ; preds = %55, %48
  %61 = load ptr, ptr %7, align 8
  %62 = getelementptr inbounds i8, ptr %61, i64 2
  %63 = load i8, ptr %62, align 1
  %64 = zext i8 %63 to i32
  %65 = and i32 %64, 8
  %66 = icmp ne i32 %65, 0
  br i1 %66, label %67, label %72

67:                                               ; preds = %60
  %68 = load i8, ptr %12, align 1
  %69 = zext i8 %68 to i32
  %70 = or i32 %69, 2
  %71 = trunc i32 %70 to i8
  store i8 %71, ptr %12, align 1
  br label %72

72:                                               ; preds = %67, %60
  %73 = load i64, ptr %11, align 8
  %74 = load ptr, ptr %5, align 8
  %75 = load i8, ptr %12, align 1
  call void @SDL_SendJoystickHat(i64 noundef %73, ptr noundef %74, i8 noundef zeroext 0, i8 noundef zeroext %75)
  %76 = load i64, ptr %11, align 8
  %77 = load ptr, ptr %5, align 8
  %78 = load ptr, ptr %7, align 8
  %79 = getelementptr inbounds i8, ptr %78, i64 2
  %80 = load i8, ptr %79, align 1
  %81 = zext i8 %80 to i32
  %82 = and i32 %81, 16
  %83 = icmp ne i32 %82, 0
  call void @SDL_SendJoystickButton(i64 noundef %76, ptr noundef %77, i8 noundef zeroext 6, i1 noundef zeroext %83)
  %84 = load i64, ptr %11, align 8
  %85 = load ptr, ptr %5, align 8
  %86 = load ptr, ptr %7, align 8
  %87 = getelementptr inbounds i8, ptr %86, i64 2
  %88 = load i8, ptr %87, align 1
  %89 = zext i8 %88 to i32
  %90 = and i32 %89, 32
  %91 = icmp ne i32 %90, 0
  call void @SDL_SendJoystickButton(i64 noundef %84, ptr noundef %85, i8 noundef zeroext 4, i1 noundef zeroext %91)
  %92 = load i64, ptr %11, align 8
  %93 = load ptr, ptr %5, align 8
  %94 = load ptr, ptr %7, align 8
  %95 = getelementptr inbounds i8, ptr %94, i64 2
  %96 = load i8, ptr %95, align 1
  %97 = zext i8 %96 to i32
  %98 = and i32 %97, 64
  %99 = icmp ne i32 %98, 0
  call void @SDL_SendJoystickButton(i64 noundef %92, ptr noundef %93, i8 noundef zeroext 7, i1 noundef zeroext %99)
  %100 = load i64, ptr %11, align 8
  %101 = load ptr, ptr %5, align 8
  %102 = load ptr, ptr %7, align 8
  %103 = getelementptr inbounds i8, ptr %102, i64 2
  %104 = load i8, ptr %103, align 1
  %105 = zext i8 %104 to i32
  %106 = and i32 %105, 128
  %107 = icmp ne i32 %106, 0
  call void @SDL_SendJoystickButton(i64 noundef %100, ptr noundef %101, i8 noundef zeroext 8, i1 noundef zeroext %107)
  call void @llvm.lifetime.end.p0(i64 1, ptr %12) #6
  br label %108

108:                                              ; preds = %72, %4
  %109 = load ptr, ptr %6, align 8
  %110 = getelementptr inbounds nuw %struct.SDL_DriverXbox360_Context, ptr %109, i32 0, i32 4
  %111 = getelementptr inbounds [64 x i8], ptr %110, i64 0, i64 3
  %112 = load i8, ptr %111, align 1
  %113 = zext i8 %112 to i32
  %114 = load ptr, ptr %7, align 8
  %115 = getelementptr inbounds i8, ptr %114, i64 3
  %116 = load i8, ptr %115, align 1
  %117 = zext i8 %116 to i32
  %118 = icmp ne i32 %113, %117
  br i1 %118, label %119, label %176

119:                                              ; preds = %108
  %120 = load i64, ptr %11, align 8
  %121 = load ptr, ptr %5, align 8
  %122 = load ptr, ptr %7, align 8
  %123 = getelementptr inbounds i8, ptr %122, i64 3
  %124 = load i8, ptr %123, align 1
  %125 = zext i8 %124 to i32
  %126 = and i32 %125, 1
  %127 = icmp ne i32 %126, 0
  call void @SDL_SendJoystickButton(i64 noundef %120, ptr noundef %121, i8 noundef zeroext 9, i1 noundef zeroext %127)
  %128 = load i64, ptr %11, align 8
  %129 = load ptr, ptr %5, align 8
  %130 = load ptr, ptr %7, align 8
  %131 = getelementptr inbounds i8, ptr %130, i64 3
  %132 = load i8, ptr %131, align 1
  %133 = zext i8 %132 to i32
  %134 = and i32 %133, 2
  %135 = icmp ne i32 %134, 0
  call void @SDL_SendJoystickButton(i64 noundef %128, ptr noundef %129, i8 noundef zeroext 10, i1 noundef zeroext %135)
  %136 = load i64, ptr %11, align 8
  %137 = load ptr, ptr %5, align 8
  %138 = load ptr, ptr %7, align 8
  %139 = getelementptr inbounds i8, ptr %138, i64 3
  %140 = load i8, ptr %139, align 1
  %141 = zext i8 %140 to i32
  %142 = and i32 %141, 4
  %143 = icmp ne i32 %142, 0
  call void @SDL_SendJoystickButton(i64 noundef %136, ptr noundef %137, i8 noundef zeroext 5, i1 noundef zeroext %143)
  %144 = load i64, ptr %11, align 8
  %145 = load ptr, ptr %5, align 8
  %146 = load ptr, ptr %7, align 8
  %147 = getelementptr inbounds i8, ptr %146, i64 3
  %148 = load i8, ptr %147, align 1
  %149 = zext i8 %148 to i32
  %150 = and i32 %149, 16
  %151 = icmp ne i32 %150, 0
  call void @SDL_SendJoystickButton(i64 noundef %144, ptr noundef %145, i8 noundef zeroext 0, i1 noundef zeroext %151)
  %152 = load i64, ptr %11, align 8
  %153 = load ptr, ptr %5, align 8
  %154 = load ptr, ptr %7, align 8
  %155 = getelementptr inbounds i8, ptr %154, i64 3
  %156 = load i8, ptr %155, align 1
  %157 = zext i8 %156 to i32
  %158 = and i32 %157, 32
  %159 = icmp ne i32 %158, 0
  call void @SDL_SendJoystickButton(i64 noundef %152, ptr noundef %153, i8 noundef zeroext 1, i1 noundef zeroext %159)
  %160 = load i64, ptr %11, align 8
  %161 = load ptr, ptr %5, align 8
  %162 = load ptr, ptr %7, align 8
  %163 = getelementptr inbounds i8, ptr %162, i64 3
  %164 = load i8, ptr %163, align 1
  %165 = zext i8 %164 to i32
  %166 = and i32 %165, 64
  %167 = icmp ne i32 %166, 0
  call void @SDL_SendJoystickButton(i64 noundef %160, ptr noundef %161, i8 noundef zeroext 2, i1 noundef zeroext %167)
  %168 = load i64, ptr %11, align 8
  %169 = load ptr, ptr %5, align 8
  %170 = load ptr, ptr %7, align 8
  %171 = getelementptr inbounds i8, ptr %170, i64 3
  %172 = load i8, ptr %171, align 1
  %173 = zext i8 %172 to i32
  %174 = and i32 %173, 128
  %175 = icmp ne i32 %174, 0
  call void @SDL_SendJoystickButton(i64 noundef %168, ptr noundef %169, i8 noundef zeroext 3, i1 noundef zeroext %175)
  br label %176

176:                                              ; preds = %119, %108
  %177 = load ptr, ptr %7, align 8
  %178 = getelementptr inbounds i8, ptr %177, i64 4
  %179 = load i8, ptr %178, align 1
  %180 = zext i8 %179 to i32
  %181 = mul nsw i32 %180, 257
  %182 = sub nsw i32 %181, 32768
  %183 = trunc i32 %182 to i16
  store i16 %183, ptr %9, align 2
  %184 = load i64, ptr %11, align 8
  %185 = load ptr, ptr %5, align 8
  %186 = load i16, ptr %9, align 2
  call void @SDL_SendJoystickAxis(i64 noundef %184, ptr noundef %185, i8 noundef zeroext 4, i16 noundef signext %186)
  %187 = load ptr, ptr %7, align 8
  %188 = getelementptr inbounds i8, ptr %187, i64 5
  %189 = load i8, ptr %188, align 1
  %190 = zext i8 %189 to i32
  %191 = mul nsw i32 %190, 257
  %192 = sub nsw i32 %191, 32768
  %193 = trunc i32 %192 to i16
  store i16 %193, ptr %9, align 2
  %194 = load i64, ptr %11, align 8
  %195 = load ptr, ptr %5, align 8
  %196 = load i16, ptr %9, align 2
  call void @SDL_SendJoystickAxis(i64 noundef %194, ptr noundef %195, i8 noundef zeroext 5, i16 noundef signext %196)
  %197 = load ptr, ptr %7, align 8
  %198 = getelementptr inbounds i8, ptr %197, i64 6
  %199 = load i16, ptr %198, align 2
  store i16 %199, ptr %9, align 2
  %200 = load i64, ptr %11, align 8
  %201 = load ptr, ptr %5, align 8
  %202 = load i16, ptr %9, align 2
  call void @SDL_SendJoystickAxis(i64 noundef %200, ptr noundef %201, i8 noundef zeroext 0, i16 noundef signext %202)
  %203 = load ptr, ptr %7, align 8
  %204 = getelementptr inbounds i8, ptr %203, i64 8
  %205 = load i16, ptr %204, align 2
  store i16 %205, ptr %9, align 2
  %206 = load i16, ptr %9, align 2
  %207 = sext i16 %206 to i32
  %208 = xor i32 %207, -1
  %209 = trunc i32 %208 to i16
  store i16 %209, ptr %9, align 2
  %210 = load i64, ptr %11, align 8
  %211 = load ptr, ptr %5, align 8
  %212 = load i16, ptr %9, align 2
  call void @SDL_SendJoystickAxis(i64 noundef %210, ptr noundef %211, i8 noundef zeroext 1, i16 noundef signext %212)
  %213 = load ptr, ptr %7, align 8
  %214 = getelementptr inbounds i8, ptr %213, i64 10
  %215 = load i16, ptr %214, align 2
  store i16 %215, ptr %9, align 2
  %216 = load i64, ptr %11, align 8
  %217 = load ptr, ptr %5, align 8
  %218 = load i16, ptr %9, align 2
  call void @SDL_SendJoystickAxis(i64 noundef %216, ptr noundef %217, i8 noundef zeroext 2, i16 noundef signext %218)
  %219 = load ptr, ptr %7, align 8
  %220 = getelementptr inbounds i8, ptr %219, i64 12
  %221 = load i16, ptr %220, align 2
  store i16 %221, ptr %9, align 2
  %222 = load i16, ptr %9, align 2
  %223 = sext i16 %222 to i32
  %224 = xor i32 %223, -1
  %225 = trunc i32 %224 to i16
  store i16 %225, ptr %9, align 2
  %226 = load i64, ptr %11, align 8
  %227 = load ptr, ptr %5, align 8
  %228 = load i16, ptr %9, align 2
  call void @SDL_SendJoystickAxis(i64 noundef %226, ptr noundef %227, i8 noundef zeroext 3, i16 noundef signext %228)
  %229 = load ptr, ptr %6, align 8
  %230 = getelementptr inbounds nuw %struct.SDL_DriverXbox360_Context, ptr %229, i32 0, i32 4
  %231 = getelementptr inbounds [64 x i8], ptr %230, i64 0, i64 0
  %232 = load ptr, ptr %7, align 8
  %233 = load i32, ptr %8, align 4
  %234 = sext i32 %233 to i64
  %235 = icmp ult i64 %234, 64
  br i1 %235, label %236, label %239

236:                                              ; preds = %176
  %237 = load i32, ptr %8, align 4
  %238 = sext i32 %237 to i64
  br label %240

239:                                              ; preds = %176
  br label %240

240:                                              ; preds = %239, %236
  %241 = phi i64 [ %238, %236 ], [ 64, %239 ]
  call void @llvm.memcpy.p0.p0.i64(ptr align 1 %231, ptr align 1 %232, i64 %241, i1 false)
  call void @llvm.lifetime.end.p0(i64 8, ptr %11) #6
  call void @llvm.lifetime.end.p0(i64 1, ptr %10) #6
  call void @llvm.lifetime.end.p0(i64 2, ptr %9) #6
  ret void
}

; Function Attrs: nounwind uwtable
define internal zeroext i1 @HIDAPI_DriverXbox360_UpdateDevice(ptr noundef %0) #0 {
  %2 = alloca i1, align 1
  %3 = alloca ptr, align 8
  %4 = alloca ptr, align 8
  %5 = alloca ptr, align 8
  %6 = alloca [64 x i8], align 16
  %7 = alloca i32, align 4
  %8 = alloca i32, align 4
  store ptr %0, ptr %3, align 8
  call void @llvm.lifetime.start.p0(i64 8, ptr %4) #6
  %9 = load ptr, ptr %3, align 8
  %10 = getelementptr inbounds nuw %struct.SDL_HIDAPI_Device, ptr %9, i32 0, i32 20
  %11 = load ptr, ptr %10, align 8
  store ptr %11, ptr %4, align 8
  call void @llvm.lifetime.start.p0(i64 8, ptr %5) #6
  store ptr null, ptr %5, align 8
  call void @llvm.lifetime.start.p0(i64 64, ptr %6) #6
  call void @llvm.lifetime.start.p0(i64 4, ptr %7) #6
  store i32 0, ptr %7, align 4
  %12 = load ptr, ptr %3, align 8
  %13 = getelementptr inbounds nuw %struct.SDL_HIDAPI_Device, ptr %12, i32 0, i32 24
  %14 = load i32, ptr %13, align 4
  %15 = icmp sgt i32 %14, 0
  br i1 %15, label %16, label %23

16:                                               ; preds = %1
  %17 = load ptr, ptr %3, align 8
  %18 = getelementptr inbounds nuw %struct.SDL_HIDAPI_Device, ptr %17, i32 0, i32 25
  %19 = load ptr, ptr %18, align 8
  %20 = getelementptr inbounds i32, ptr %19, i64 0
  %21 = load i32, ptr %20, align 4
  %22 = call ptr @SDL_GetJoystickFromID_REAL(i32 noundef %21)
  store ptr %22, ptr %5, align 8
  br label %24

23:                                               ; preds = %1
  store i1 false, ptr %2, align 1
  store i32 1, ptr %8, align 4
  br label %60

24:                                               ; preds = %16
  br label %25

25:                                               ; preds = %46, %35, %24
  %26 = load ptr, ptr %3, align 8
  %27 = getelementptr inbounds nuw %struct.SDL_HIDAPI_Device, ptr %26, i32 0, i32 22
  %28 = load ptr, ptr %27, align 8
  %29 = getelementptr inbounds [64 x i8], ptr %6, i64 0, i64 0
  %30 = call i32 @SDL_hid_read_timeout_REAL(ptr noundef %28, ptr noundef %29, i64 noundef 64, i32 noundef 0)
  store i32 %30, ptr %7, align 4
  %31 = icmp sgt i32 %30, 0
  br i1 %31, label %32, label %47

32:                                               ; preds = %25
  %33 = load ptr, ptr %5, align 8
  %34 = icmp ne ptr %33, null
  br i1 %34, label %36, label %35

35:                                               ; preds = %32
  br label %25, !llvm.loop !3

36:                                               ; preds = %32
  %37 = getelementptr inbounds [64 x i8], ptr %6, i64 0, i64 0
  %38 = load i8, ptr %37, align 16
  %39 = zext i8 %38 to i32
  %40 = icmp eq i32 %39, 0
  br i1 %40, label %41, label %46

41:                                               ; preds = %36
  %42 = load ptr, ptr %5, align 8
  %43 = load ptr, ptr %4, align 8
  %44 = getelementptr inbounds [64 x i8], ptr %6, i64 0, i64 0
  %45 = load i32, ptr %7, align 4
  call void @HIDAPI_DriverXbox360_HandleStatePacket(ptr noundef %42, ptr noundef %43, ptr noundef %44, i32 noundef %45)
  br label %46

46:                                               ; preds = %41, %36
  br label %25, !llvm.loop !3

47:                                               ; preds = %25
  %48 = load i32, ptr %7, align 4
  %49 = icmp slt i32 %48, 0
  br i1 %49, label %50, label %57

50:                                               ; preds = %47
  %51 = load ptr, ptr %3, align 8
  %52 = load ptr, ptr %3, align 8
  %53 = getelementptr inbounds nuw %struct.SDL_HIDAPI_Device, ptr %52, i32 0, i32 25
  %54 = load ptr, ptr %53, align 8
  %55 = getelementptr inbounds i32, ptr %54, i64 0
  %56 = load i32, ptr %55, align 4
  call void @HIDAPI_JoystickDisconnected(ptr noundef %51, i32 noundef %56)
  br label %57

57:                                               ; preds = %50, %47
  %58 = load i32, ptr %7, align 4
  %59 = icmp sge i32 %58, 0
  store i1 %59, ptr %2, align 1
  store i32 1, ptr %8, align 4
  br label %60

60:                                               ; preds = %57, %23
  call void @llvm.lifetime.end.p0(i64 4, ptr %7) #6
  call void @llvm.lifetime.end.p0(i64 64, ptr %6) #6
  call void @llvm.lifetime.end.p0(i64 8, ptr %5) #6
  call void @llvm.lifetime.end.p0(i64 8, ptr %4) #6
  %61 = load i1, ptr %2, align 1
  ret i1 %61
}